target datalayout = "e-m:e-p270:32:32-p271:32:32-p272:64:64-i64:64-i128:128-f80:128-n8:16:32:64-S128"
target triple = "x86_64-pc-linux-gnu"

%"class.arrow::internal::Bitmap" = type { ptr, ptr, i64, i64 }

; Function Attrs: mustprogress nounwind uwtable
define linkonce_odr noundef i64 @_ZNK5arrow8internal6Bitmap6offsetEv(ptr noundef nonnull align 8 dereferenceable(32) %0) #0 comdat align 2 {
  %2 = alloca ptr, align 8
  store ptr %0, ptr %2, align 8, !tbaa !53
  %3 = load ptr, ptr %2, align 8
  %4 = getelementptr inbounds nuw %"class.arrow::internal::Bitmap", ptr %3, i32 0, i32 2
  %5 = load i64, ptr %4, align 8, !tbaa !65
  ret i64 %5
}

; Function Attrs: mustprogress uwtable
define noundef zeroext i1 @_ZNK5arrow8internal6Bitmap6EqualsERKS1_(ptr noundef nonnull align 8 dereferenceable(32) %0, ptr noundef nonnull align 8 dereferenceable(32) %1) #1 align 2 {
  %3 = alloca i1, align 1
  %4 = alloca ptr, align 8
  %5 = alloca ptr, align 8
  store ptr %0, ptr %4, align 8, !tbaa !53
  store ptr %1, ptr %5, align 8, !tbaa !53
  %6 = load ptr, ptr %4, align 8
  %7 = getelementptr inbounds nuw %"class.arrow::internal::Bitmap", ptr %6, i32 0, i32 3
  %8 = load i64, ptr %7, align 8, !tbaa !55
  %9 = load ptr, ptr %5, align 8, !tbaa !53
  %10 = getelementptr inbounds nuw %"class.arrow::internal::Bitmap", ptr %9, i32 0, i32 3
  %11 = load i64, ptr %10, align 8, !tbaa !55
  %12 = icmp ne i64 %8, %11
  br i1 %12, label %13, label %14

13:                                               ; preds = %2
  store i1 false, ptr %3, align 1
  br label %27

14:                                               ; preds = %2
  %15 = getelementptr inbounds nuw %"class.arrow::internal::Bitmap", ptr %6, i32 0, i32 0
  %16 = load ptr, ptr %15, align 8, !tbaa !64
  %17 = getelementptr inbounds nuw %"class.arrow::internal::Bitmap", ptr %6, i32 0, i32 2
  %18 = load i64, ptr %17, align 8, !tbaa !65
  %19 = load ptr, ptr %5, align 8, !tbaa !53
  %20 = getelementptr inbounds nuw %"class.arrow::internal::Bitmap", ptr %19, i32 0, i32 0
  %21 = load ptr, ptr %20, align 8, !tbaa !64
  %22 = load ptr, ptr %5, align 8, !tbaa !53
  %23 = call noundef i64 @_ZNK5arrow8internal6Bitmap6offsetEv(ptr noundef nonnull align 8 dereferenceable(32) %22)
  %24 = getelementptr inbounds nuw %"class.arrow::internal::Bitmap", ptr %6, i32 0, i32 3
  %25 = load i64, ptr %24, align 8, !tbaa !55
  %26 = call noundef zeroext i1 @_ZN5arrow8internal12BitmapEqualsEPKhlS2_ll(ptr noundef %16, i64 noundef %18, ptr noundef %21, i64 noundef %23, i64 noundef %25)
  store i1 %26, ptr %3, align 1
  br label %27

27:                                               ; preds = %14, %13
  %28 = load i1, ptr %3, align 1
  ret i1 %28
}