; Function Attrs: mustprogress uwtable
define noundef zeroext i1 @_ZNK5arrow8internal6Bitmap6EqualsERKS1_(ptr noundef nonnull readonly align 8 captures(none) dereferenceable(32) %0, ptr noundef nonnull readonly align 8 captures(none) dereferenceable(32) %1) local_unnamed_addr #1 align 2 {
  %3 = getelementptr inbounds nuw i8, ptr %0, i64 24
  %4 = load i64, ptr %3, align 8, !tbaa !32
  %5 = getelementptr inbounds nuw i8, ptr %1, i64 24
  %6 = load i64, ptr %5, align 8, !tbaa !32
  %.not = icmp eq i64 %4, %6
  br i1 %.not, label %7, label %15

7:                                                ; preds = %2
  %8 = load ptr, ptr %0, align 8, !tbaa !38
  %9 = getelementptr inbounds nuw i8, ptr %0, i64 16
  %10 = load i64, ptr %9, align 8, !tbaa !39
  %11 = load ptr, ptr %1, align 8, !tbaa !38
  %12 = getelementptr inbounds nuw i8, ptr %1, i64 16
  %13 = load i64, ptr %12, align 8, !tbaa !39
  %14 = tail call noundef zeroext i1 @_ZN5arrow8internal12BitmapEqualsEPKhlS2_ll(ptr noundef %8, i64 noundef %10, ptr noundef %11, i64 noundef %13, i64 noundef %4)
  br label %15

15:                                               ; preds = %2, %7
  %.0 = phi i1 [ %14, %7 ], [ false, %2 ]
  ret i1 %.0
}